target datalayout = "e-m:e-p270:32:32-p271:32:32-p272:64:64-i64:64-i128:128-f80:128-n8:16:32:64-S128"
target triple = "x86_64-pc-linux-gnu"

%struct.darktable_t = type { %struct.dt_codepath_t, i32, i32, ptr, ptr, ptr, ptr, ptr, ptr, ptr, ptr, ptr, ptr, ptr, ptr, ptr, ptr, ptr, ptr, ptr, ptr, ptr, ptr, ptr, ptr, ptr, ptr, ptr, ptr, ptr, [64 x %struct.dt_pthread_mutex_t], %struct.dt_pthread_mutex_t, %struct.dt_pthread_mutex_t, %struct.dt_pthread_mutex_t, %struct.dt_pthread_mutex_t, %struct.dt_pthread_mutex_t, ptr, ptr, ptr, ptr, ptr, ptr, ptr, ptr, ptr, ptr, ptr, ptr, ptr, %struct.dt_lua_state_t, ptr, double, ptr, i32, [47 x i32], i32, i32, ptr, ptr, %struct.dt_sys_resources_t, %struct.dt_backthumb_t, %struct.dt_gimp_t }
%struct.dt_codepath_t = type { i8, [3 x i8] }
%struct.dt_pthread_mutex_t = type { %union.pthread_mutex_t }
%union.pthread_mutex_t = type { %struct.__pthread_mutex_s }
%struct.__pthread_mutex_s = type { i32, i32, i32, i32, i32, i16, i16, %struct.__pthread_internal_list }
%struct.__pthread_internal_list = type { ptr, ptr }
%struct.dt_lua_state_t = type { i32 }
%struct.dt_sys_resources_t = type { i64, i64, ptr, ptr, i32 }
%struct.dt_backthumb_t = type { double, double, i32, i32, i32, i32 }
%struct.dt_gimp_t = type { i32, ptr, ptr, i32, i32 }
%struct.dt_camctl_t = type { %struct.dt_pthread_mutex_t, %struct.dt_pthread_mutex_t, i64, ptr, ptr, ptr, ptr, ptr, ptr, ptr, ptr, i32, i32, i32 }
%struct._GList = type { ptr, ptr, ptr }
%struct.dt_camera_unused_t = type { ptr, ptr, i32, i32, i32 }

@darktable = external global %struct.darktable_t, align 8
@.str.9 = private unnamed_addr constant [46 x i8] c"[camera_control] destroy darktable camcontrol\00", align 1

; Function Attrs: inlinehint nounwind uwtable
define internal i32 @dt_pthread_mutex_destroy(ptr noundef %0) #4 {
  %2 = alloca ptr, align 8
  %3 = alloca i32, align 4
  store ptr %0, ptr %2, align 8, !tbaa !91
  call void @llvm.lifetime.start.p0(i64 4, ptr %3) #10
  %4 = load ptr, ptr %2, align 8, !tbaa !91
  %5 = getelementptr inbounds nuw %struct.dt_pthread_mutex_t, ptr %4, i32 0, i32 0
  %6 = call i32 @pthread_mutex_destroy(ptr noundef %5) #10
  store i32 %6, ptr %3, align 4, !tbaa !64
  %7 = load i32, ptr %3, align 4, !tbaa !64
  call void @llvm.lifetime.end.p0(i64 4, ptr %3) #10
  ret i32 %7
}

; Function Attrs: nounwind uwtable
define internal void @dt_camctl_unused_camera_destroy(ptr noundef %0) #0 {
  %2 = alloca ptr, align 8
  store ptr %0, ptr %2, align 8, !tbaa !99
  %3 = load ptr, ptr %2, align 8, !tbaa !99
  %4 = icmp ne ptr %3, null
  br i1 %4, label %6, label %5

5:                                                ; preds = %1
  br label %14

6:                                                ; preds = %1
  %7 = load ptr, ptr %2, align 8, !tbaa !99
  %8 = getelementptr inbounds nuw %struct.dt_camera_unused_t, ptr %7, i32 0, i32 0
  %9 = load ptr, ptr %8, align 8, !tbaa !101
  call void @g_free(ptr noundef %9)
  %10 = load ptr, ptr %2, align 8, !tbaa !99
  %11 = getelementptr inbounds nuw %struct.dt_camera_unused_t, ptr %10, i32 0, i32 1
  %12 = load ptr, ptr %11, align 8, !tbaa !103
  call void @g_free(ptr noundef %12)
  %13 = load ptr, ptr %2, align 8, !tbaa !99
  call void @g_free(ptr noundef %13)
  br label %14

14:                                               ; preds = %6, %5
  ret void
}

; Function Attrs: nounwind uwtable
define void @dt_camctl_destroy(ptr noundef %0) #0 {
  %2 = alloca ptr, align 8
  %3 = alloca ptr, align 8
  %4 = alloca ptr, align 8
  store ptr %0, ptr %2, align 8, !tbaa !6
  %5 = load ptr, ptr %2, align 8, !tbaa !6
  %6 = icmp ne ptr %5, null
  br i1 %6, label %8, label %7

7:                                                ; preds = %1
  br label %75

8:                                                ; preds = %1
  br label %9

9:                                                ; preds = %8
  %10 = load i32, ptr getelementptr inbounds nuw (%struct.darktable_t, ptr @darktable, i32 0, i32 2), align 8, !tbaa !22
  %11 = and i32 32, %10
  %12 = icmp ne i32 %11, 0
  br i1 %12, label %13, label %19

13:                                               ; preds = %9
  %14 = load i32, ptr getelementptr inbounds nuw (%struct.darktable_t, ptr @darktable, i32 0, i32 2), align 8, !tbaa !22
  %15 = xor i32 %14, -1
  %16 = and i32 0, %15
  %17 = icmp ne i32 %16, 0
  br i1 %17, label %19, label %18

18:                                               ; preds = %13
  call void (ptr, ...) @dt_print_ext(ptr noundef @.str.9)
  br label %19

19:                                               ; preds = %18, %13, %9
  br label %20

20:                                               ; preds = %19
  %21 = load ptr, ptr %2, align 8, !tbaa !6
  %22 = getelementptr inbounds nuw %struct.dt_camctl_t, ptr %21, i32 0, i32 6
  %23 = load ptr, ptr %22, align 8, !tbaa !79
  %24 = call i32 @gp_context_cancel(ptr noundef %23)
  call void @llvm.lifetime.start.p0(i64 8, ptr %3) #10
  %25 = load ptr, ptr %2, align 8, !tbaa !6
  %26 = getelementptr inbounds nuw %struct.dt_camctl_t, ptr %25, i32 0, i32 4
  %27 = load ptr, ptr %26, align 8, !tbaa !84
  store ptr %27, ptr %3, align 8, !tbaa !85
  br label %28

28:                                               ; preds = %36, %20
  %29 = load ptr, ptr %3, align 8, !tbaa !85
  %30 = icmp ne ptr %29, null
  br i1 %30, label %32, label %31

31:                                               ; preds = %28
  call void @llvm.lifetime.end.p0(i64 8, ptr %3) #10
  br label %40

32:                                               ; preds = %28
  %33 = load ptr, ptr %3, align 8, !tbaa !85
  %34 = getelementptr inbounds nuw %struct._GList, ptr %33, i32 0, i32 0
  %35 = load ptr, ptr %34, align 8, !tbaa !86
  call void @dt_camctl_camera_destroy(ptr noundef %35)
  br label %36

36:                                               ; preds = %32
  %37 = load ptr, ptr %3, align 8, !tbaa !85
  %38 = load ptr, ptr %3, align 8, !tbaa !85
  %39 = call ptr @g_list_delete_link(ptr noundef %37, ptr noundef %38)
  store ptr %39, ptr %3, align 8, !tbaa !85
  br label %28

40:                                               ; preds = %31
  call void @llvm.lifetime.start.p0(i64 8, ptr %4) #10
  %41 = load ptr, ptr %2, align 8, !tbaa !6
  %42 = getelementptr inbounds nuw %struct.dt_camctl_t, ptr %41, i32 0, i32 5
  %43 = load ptr, ptr %42, align 8, !tbaa !93
  store ptr %43, ptr %4, align 8, !tbaa !85
  br label %44

44:                                               ; preds = %52, %40
  %45 = load ptr, ptr %4, align 8, !tbaa !85
  %46 = icmp ne ptr %45, null
  br i1 %46, label %48, label %47

47:                                               ; preds = %44
  call void @llvm.lifetime.end.p0(i64 8, ptr %4) #10
  br label %56

48:                                               ; preds = %44
  %49 = load ptr, ptr %4, align 8, !tbaa !85
  %50 = getelementptr inbounds nuw %struct._GList, ptr %49, i32 0, i32 0
  %51 = load ptr, ptr %50, align 8, !tbaa !86
  call void @dt_camctl_unused_camera_destroy(ptr noundef %51)
  br label %52

52:                                               ; preds = %48
  %53 = load ptr, ptr %4, align 8, !tbaa !85
  %54 = load ptr, ptr %4, align 8, !tbaa !85
  %55 = call ptr @g_list_delete_link(ptr noundef %53, ptr noundef %54)
  store ptr %55, ptr %4, align 8, !tbaa !85
  br label %44

56:                                               ; preds = %47
  %57 = load ptr, ptr %2, align 8, !tbaa !6
  %58 = getelementptr inbounds nuw %struct.dt_camctl_t, ptr %57, i32 0, i32 6
  %59 = load ptr, ptr %58, align 8, !tbaa !79
  call void @gp_context_unref(ptr noundef %59)
  %60 = load ptr, ptr %2, align 8, !tbaa !6
  %61 = getelementptr inbounds nuw %struct.dt_camctl_t, ptr %60, i32 0, i32 8
  %62 = load ptr, ptr %61, align 8, !tbaa !82
  %63 = call i32 @gp_abilities_list_free(ptr noundef %62)
  %64 = load ptr, ptr %2, align 8, !tbaa !6
  %65 = getelementptr inbounds nuw %struct.dt_camctl_t, ptr %64, i32 0, i32 7
  %66 = load ptr, ptr %65, align 8, !tbaa !94
  %67 = call i32 @gp_port_info_list_free(ptr noundef %66)
  %68 = load ptr, ptr %2, align 8, !tbaa !6
  %69 = getelementptr inbounds nuw %struct.dt_camctl_t, ptr %68, i32 0, i32 0
  %70 = call i32 @dt_pthread_mutex_destroy(ptr noundef %69)
  %71 = load ptr, ptr %2, align 8, !tbaa !6
  %72 = getelementptr inbounds nuw %struct.dt_camctl_t, ptr %71, i32 0, i32 1
  %73 = call i32 @dt_pthread_mutex_destroy(ptr noundef %72)
  %74 = load ptr, ptr %2, align 8, !tbaa !6
  call void @g_free(ptr noundef %74)
  br label %75

75:                                               ; preds = %56, %7
  ret void
}