; Function Attrs: nounwind uwtable
define void @dt_camctl_destroy(ptr noundef %0) local_unnamed_addr #0 {
  %.not = icmp eq ptr %0, null
  br i1 %.not, label %32, label %2

2:                                                ; preds = %1
  %3 = load i32, ptr getelementptr inbounds nuw (i8, ptr @darktable, i64 8), align 8, !tbaa !19
  %4 = and i32 %3, 32
  %.not20 = icmp eq i32 %4, 0
  br i1 %.not20, label %6, label %5

5:                                                ; preds = %2
  tail call void (ptr, ...) @dt_print_ext(ptr noundef nonnull @.str.9) #15
  br label %6

6:                                                ; preds = %2, %5
  %7 = getelementptr inbounds nuw i8, ptr %0, i64 112
  %8 = load ptr, ptr %7, align 8, !tbaa !73
  %9 = tail call i32 @gp_context_cancel(ptr noundef %8) #15
  %10 = getelementptr inbounds nuw i8, ptr %0, i64 96
  %11 = load ptr, ptr %10, align 8, !tbaa !77
  %.not2123 = icmp eq ptr %11, null
  br i1 %.not2123, label %._crit_edge, label %.lr.ph

._crit_edge:                                      ; preds = %.lr.ph, %6
  %12 = getelementptr inbounds nuw i8, ptr %0, i64 104
  %13 = load ptr, ptr %12, align 8, !tbaa !88
  %.not2225 = icmp eq ptr %13, null
  br i1 %.not2225, label %._crit_edge29, label %.lr.ph28

.lr.ph:                                           ; preds = %6, %.lr.ph
  %.01824 = phi ptr [ %15, %.lr.ph ], [ %11, %6 ]
  %14 = load ptr, ptr %.01824, align 8, !tbaa !78
  tail call fastcc void @dt_camctl_camera_destroy(ptr noundef %14)
  %15 = tail call ptr @g_list_delete_link(ptr noundef nonnull %.01824, ptr noundef nonnull %.01824) #15
  %.not21 = icmp eq ptr %15, null
  br i1 %.not21, label %._crit_edge, label %.lr.ph

._crit_edge29:                                    ; preds = %dt_camctl_unused_camera_destroy.exit, %._crit_edge
  %16 = load ptr, ptr %7, align 8, !tbaa !73
  tail call void @gp_context_unref(ptr noundef %16) #15
  %17 = getelementptr inbounds nuw i8, ptr %0, i64 128
  %18 = load ptr, ptr %17, align 8, !tbaa !76
  %19 = tail call i32 @gp_abilities_list_free(ptr noundef %18) #15
  %20 = getelementptr inbounds nuw i8, ptr %0, i64 120
  %21 = load ptr, ptr %20, align 8, !tbaa !89
  %22 = tail call i32 @gp_port_info_list_free(ptr noundef %21) #15
  %23 = tail call i32 @pthread_mutex_destroy(ptr noundef nonnull %0) #15
  %24 = getelementptr inbounds nuw i8, ptr %0, i64 40
  %25 = tail call i32 @pthread_mutex_destroy(ptr noundef nonnull %24) #15
  tail call void @g_free(ptr noundef nonnull %0) #15
  br label %32

.lr.ph28:                                         ; preds = %._crit_edge, %dt_camctl_unused_camera_destroy.exit
  %.026 = phi ptr [ %31, %dt_camctl_unused_camera_destroy.exit ], [ %13, %._crit_edge ]
  %26 = load ptr, ptr %.026, align 8, !tbaa !78
  %.not.i = icmp eq ptr %26, null
  br i1 %.not.i, label %dt_camctl_unused_camera_destroy.exit, label %27

27:                                               ; preds = %.lr.ph28
  %28 = load ptr, ptr %26, align 8, !tbaa !90
  tail call void @g_free(ptr noundef %28) #15
  %29 = getelementptr inbounds nuw i8, ptr %26, i64 8
  %30 = load ptr, ptr %29, align 8, !tbaa !92
  tail call void @g_free(ptr noundef %30) #15
  tail call void @g_free(ptr noundef nonnull %26) #15
  br label %dt_camctl_unused_camera_destroy.exit

dt_camctl_unused_camera_destroy.exit:             ; preds = %.lr.ph28, %27
  %31 = tail call ptr @g_list_delete_link(ptr noundef nonnull %.026, ptr noundef nonnull %.026) #15
  %.not22 = icmp eq ptr %31, null
  br i1 %.not22, label %._crit_edge29, label %.lr.ph28

32:                                               ; preds = %1, %._crit_edge29
  ret void
}